target datalayout = "e-m:e-p270:32:32-p271:32:32-p272:64:64-i64:64-i128:128-f80:128-n8:16:32:64-S128"
target triple = "x86_64-pc-linux-gnu"

%"struct.__cxxabiv1::__dynamic_cast_info" = type { ptr, ptr, ptr, i64, ptr, ptr, i32, i32, i32, i32, i32, i32, i32, i8, i8, i8, i8, ptr }
%"class.std::type_info" = type { ptr, ptr }
%"struct.__cxxabiv1::__base_class_type_info" = type { ptr, i64 }

; Function Attrs: alwaysinline mustprogress nounwind uwtable
define linkonce_odr hidden noundef ptr @_ZNSt27__type_info_implementations18__string_impl_base21__type_name_to_stringB8ne210000EPKc(ptr noundef %0) #10 comdat align 2 {
  %2 = alloca ptr, align 8
  store ptr %0, ptr %2, align 8, !tbaa !38
  %3 = load ptr, ptr %2, align 8, !tbaa !38
  ret ptr %3
}

; Function Attrs: mustprogress nounwind uwtable
define linkonce_odr hidden noundef ptr @_ZNKSt9type_info4nameB8ne210000Ev(ptr noundef nonnull align 8 dereferenceable(16) %0) #1 comdat align 2 {
  %2 = alloca ptr, align 8
  store ptr %0, ptr %2, align 8, !tbaa !31
  %3 = load ptr, ptr %2, align 8
  %4 = getelementptr inbounds nuw %"class.std::type_info", ptr %3, i32 0, i32 1
  %5 = load ptr, ptr %4, align 8, !tbaa !81
  %6 = call noundef ptr @_ZNSt27__type_info_implementations18__string_impl_base21__type_name_to_stringB8ne210000EPKc(ptr noundef %5) #11
  ret ptr %6
}

; Function Attrs: inlinehint mustprogress nounwind uwtable
define internal noundef i64 @_ZL21update_offset_to_basePKcl(ptr noundef %0, i64 noundef %1) #5 {
  %3 = alloca ptr, align 8
  %4 = alloca i64, align 8
  store ptr %0, ptr %3, align 8, !tbaa !38
  store i64 %1, ptr %4, align 8, !tbaa !63
  %5 = load ptr, ptr %3, align 8, !tbaa !38
  %6 = load i64, ptr %4, align 8, !tbaa !63
  %7 = getelementptr inbounds i8, ptr %5, i64 %6
  %8 = load i64, ptr %7, align 8, !tbaa !63
  ret i64 %8
}

; Function Attrs: inlinehint mustprogress nounwind uwtable
define internal noundef ptr @_ZL12strip_vtableIKcEPT_S2_(ptr noundef %0) #5 {
  %2 = alloca ptr, align 8
  store ptr %0, ptr %2, align 8, !tbaa !38
  %3 = load ptr, ptr %2, align 8, !tbaa !38
  ret ptr %3
}

; Function Attrs: mustprogress uwtable
define hidden void @_ZNK10__cxxabiv122__base_class_type_info27has_unambiguous_public_baseEPNS_19__dynamic_cast_infoEPvi(ptr noundef nonnull align 8 dereferenceable(16) %0, ptr noundef %1, ptr noundef %2, i32 noundef %3) #4 align 2 {
  %5 = alloca ptr, align 8
  %6 = alloca ptr, align 8
  %7 = alloca ptr, align 8
  %8 = alloca i32, align 4
  %9 = alloca i8, align 1
  %10 = alloca i64, align 8
  %11 = alloca ptr, align 8
  store ptr %0, ptr %5, align 8, !tbaa !76
  store ptr %1, ptr %6, align 8, !tbaa !68
  store ptr %2, ptr %7, align 8, !tbaa !37
  store i32 %3, ptr %8, align 4, !tbaa !70
  %12 = load ptr, ptr %5, align 8
  call void @llvm.lifetime.start.p0(i64 1, ptr %9) #11
  %13 = getelementptr inbounds nuw %"struct.__cxxabiv1::__base_class_type_info", ptr %12, i32 0, i32 1
  %14 = load i64, ptr %13, align 8, !tbaa !78
  %15 = and i64 %14, 1
  %16 = icmp ne i64 %15, 0
  %17 = zext i1 %16 to i8
  store i8 %17, ptr %9, align 1, !tbaa !33
  call void @llvm.lifetime.start.p0(i64 8, ptr %10) #11
  store i64 0, ptr %10, align 8, !tbaa !63
  %18 = load ptr, ptr %6, align 8, !tbaa !68
  %19 = getelementptr inbounds nuw %"struct.__cxxabiv1::__dynamic_cast_info", ptr %18, i32 0, i32 16
  %20 = load i8, ptr %19, align 1, !tbaa !59, !range !35, !noundef !36
  %21 = trunc i8 %20 to i1
  br i1 %21, label %22, label %36

22:                                               ; preds = %4
  %23 = getelementptr inbounds nuw %"struct.__cxxabiv1::__base_class_type_info", ptr %12, i32 0, i32 1
  %24 = load i64, ptr %23, align 8, !tbaa !78
  %25 = ashr i64 %24, 8
  store i64 %25, ptr %10, align 8, !tbaa !63
  %26 = load i8, ptr %9, align 1, !tbaa !33, !range !35, !noundef !36
  %27 = trunc i8 %26 to i1
  br i1 %27, label %28, label %35

28:                                               ; preds = %22
  call void @llvm.lifetime.start.p0(i64 8, ptr %11) #11
  %29 = load ptr, ptr %7, align 8, !tbaa !37
  %30 = load ptr, ptr %29, align 8, !tbaa !38
  %31 = call noundef ptr @_ZL12strip_vtableIKcEPT_S2_(ptr noundef %30)
  store ptr %31, ptr %11, align 8, !tbaa !38
  %32 = load ptr, ptr %11, align 8, !tbaa !38
  %33 = load i64, ptr %10, align 8, !tbaa !63
  %34 = call noundef i64 @_ZL21update_offset_to_basePKcl(ptr noundef %32, i64 noundef %33)
  store i64 %34, ptr %10, align 8, !tbaa !63
  call void @llvm.lifetime.end.p0(i64 8, ptr %11) #11
  br label %35

35:                                               ; preds = %28, %22
  br label %50

36:                                               ; preds = %4
  %37 = load i8, ptr %9, align 1, !tbaa !33, !range !35, !noundef !36
  %38 = trunc i8 %37 to i1
  br i1 %38, label %43, label %39

39:                                               ; preds = %36
  %40 = getelementptr inbounds nuw %"struct.__cxxabiv1::__base_class_type_info", ptr %12, i32 0, i32 1
  %41 = load i64, ptr %40, align 8, !tbaa !78
  %42 = ashr i64 %41, 8
  store i64 %42, ptr %10, align 8, !tbaa !63
  br label %49

43:                                               ; preds = %36
  %44 = getelementptr inbounds nuw %"struct.__cxxabiv1::__base_class_type_info", ptr %12, i32 0, i32 0
  %45 = load ptr, ptr %44, align 8, !tbaa !80
  %46 = call noundef ptr @_ZNKSt9type_info4nameB8ne210000Ev(ptr noundef nonnull align 8 dereferenceable(16) %45) #11
  %47 = load ptr, ptr %6, align 8, !tbaa !68
  %48 = getelementptr inbounds nuw %"struct.__cxxabiv1::__dynamic_cast_info", ptr %47, i32 0, i32 17
  store ptr %46, ptr %48, align 8, !tbaa !60
  store ptr null, ptr %7, align 8, !tbaa !37
  br label %49

49:                                               ; preds = %43, %39
  br label %50

50:                                               ; preds = %49, %35
  %51 = getelementptr inbounds nuw %"struct.__cxxabiv1::__base_class_type_info", ptr %12, i32 0, i32 0
  %52 = load ptr, ptr %51, align 8, !tbaa !80
  %53 = load ptr, ptr %6, align 8, !tbaa !68
  %54 = load ptr, ptr %7, align 8, !tbaa !37
  %55 = ptrtoint ptr %54 to i64
  %56 = load i64, ptr %10, align 8, !tbaa !63
  %57 = add i64 %55, %56
  %58 = inttoptr i64 %57 to ptr
  %59 = getelementptr inbounds nuw %"struct.__cxxabiv1::__base_class_type_info", ptr %12, i32 0, i32 1
  %60 = load i64, ptr %59, align 8, !tbaa !78
  %61 = and i64 %60, 2
  %62 = icmp ne i64 %61, 0
  br i1 %62, label %63, label %65

63:                                               ; preds = %50
  %64 = load i32, ptr %8, align 4, !tbaa !70
  br label %66

65:                                               ; preds = %50
  br label %66

66:                                               ; preds = %65, %63
  %67 = phi i32 [ %64, %63 ], [ 2, %65 ]
  %68 = load ptr, ptr %52, align 8, !tbaa !61
  %69 = getelementptr inbounds ptr, ptr %68, i64 7
  %70 = load ptr, ptr %69, align 8
  call void %70(ptr noundef nonnull align 8 dereferenceable(16) %52, ptr noundef %53, ptr noundef %58, i32 noundef %67)
  call void @llvm.lifetime.end.p0(i64 8, ptr %10) #11
  call void @llvm.lifetime.end.p0(i64 1, ptr %9) #11
  ret void
}