; Function Attrs: mustprogress uwtable
define hidden void @_ZNK10__cxxabiv122__base_class_type_info27has_unambiguous_public_baseEPNS_19__dynamic_cast_infoEPvi(ptr noundef nonnull readonly align 8 captures(none) dereferenceable(16) %0, ptr noundef %1, ptr noundef %2, i32 noundef %3) local_unnamed_addr #7 align 2 {
  %5 = getelementptr inbounds nuw i8, ptr %0, i64 8
  %6 = load i64, ptr %5, align 8, !tbaa !39
  %7 = and i64 %6, 1
  %.not = icmp eq i64 %7, 0
  %8 = getelementptr inbounds nuw i8, ptr %1, i64 79
  %9 = load i8, ptr %8, align 1, !tbaa !20, !range !41, !noundef !42
  %10 = trunc nuw i8 %9 to i1
  br i1 %10, label %11, label %17

11:                                               ; preds = %4
  %12 = ashr i64 %6, 8
  br i1 %.not, label %25, label %13

13:                                               ; preds = %11
  %14 = load ptr, ptr %2, align 8, !tbaa !43
  %15 = getelementptr inbounds i8, ptr %14, i64 %12
  %16 = load i64, ptr %15, align 8, !tbaa !44
  br label %25

17:                                               ; preds = %4
  br i1 %.not, label %18, label %20

18:                                               ; preds = %17
  %19 = ashr i64 %6, 8
  br label %25

20:                                               ; preds = %17
  %21 = load ptr, ptr %0, align 8, !tbaa !45
  %22 = getelementptr inbounds nuw i8, ptr %21, i64 8
  %23 = load ptr, ptr %22, align 8, !tbaa !4
  %24 = getelementptr inbounds nuw i8, ptr %1, i64 80
  store ptr %23, ptr %24, align 8, !tbaa !21
  br label %25

25:                                               ; preds = %18, %20, %11, %13
  %.011 = phi i64 [ %16, %13 ], [ %12, %11 ], [ 0, %20 ], [ %19, %18 ]
  %.0 = phi ptr [ %2, %13 ], [ %2, %11 ], [ null, %20 ], [ %2, %18 ]
  %26 = load ptr, ptr %0, align 8, !tbaa !45
  %27 = ptrtoint ptr %.0 to i64
  %28 = add i64 %.011, %27
  %29 = inttoptr i64 %28 to ptr
  %30 = and i64 %6, 2
  %.not12 = icmp eq i64 %30, 0
  %31 = select i1 %.not12, i32 2, i32 %3
  %32 = load ptr, ptr %26, align 8, !tbaa !23
  %33 = getelementptr inbounds nuw i8, ptr %32, i64 56
  %34 = load ptr, ptr %33, align 8
  tail call void %34(ptr noundef nonnull align 8 dereferenceable(16) %26, ptr noundef nonnull %1, ptr noundef %29, i32 noundef %31)
  ret void
}